; Function Attrs: nounwind uwtable
define dso_local range(i32 0, 28) i32 @easysrc_init() local_unnamed_addr #0 {
  %1 = load ptr, ptr @easysrc_code, align 8, !tbaa !4
  %2 = tail call ptr @slist_wc_append(ptr noundef %1, ptr noundef nonnull @.str) #5
  %.not.i.not = icmp eq ptr %2, null
  br i1 %.not.i.not, label %3, label %9

3:                                                ; preds = %0
  %4 = load ptr, ptr @easysrc_decl, align 8, !tbaa !4
  tail call void @slist_wc_free_all(ptr noundef %4) #5
  store ptr null, ptr @easysrc_decl, align 8, !tbaa !4
  %5 = load ptr, ptr @easysrc_data, align 8, !tbaa !4
  tail call void @slist_wc_free_all(ptr noundef %5) #5
  store ptr null, ptr @easysrc_data, align 8, !tbaa !4
  %6 = load ptr, ptr @easysrc_code, align 8, !tbaa !4
  tail call void @slist_wc_free_all(ptr noundef %6) #5
  store ptr null, ptr @easysrc_code, align 8, !tbaa !4
  %7 = load ptr, ptr @easysrc_toohard, align 8, !tbaa !4
  tail call void @slist_wc_free_all(ptr noundef %7) #5
  store ptr null, ptr @easysrc_toohard, align 8, !tbaa !4
  %8 = load ptr, ptr @easysrc_clean, align 8, !tbaa !4
  tail call void @slist_wc_free_all(ptr noundef %8) #5
  store ptr null, ptr @easysrc_clean, align 8, !tbaa !4
  br label %easysrc_add.exit

9:                                                ; preds = %0
  store ptr %2, ptr @easysrc_code, align 8, !tbaa !4
  br label %easysrc_add.exit

easysrc_add.exit:                                 ; preds = %3, %9
  %spec.select = phi i32 [ 0, %9 ], [ 27, %3 ]
  ret i32 %spec.select
}